target datalayout = "e-m:e-p270:32:32-p271:32:32-p272:64:64-i64:64-i128:128-f80:128-n8:16:32:64-S128"
target triple = "x86_64-pc-linux-gnu"

%struct.lxb_html_tree = type { ptr, ptr, ptr, ptr, ptr, ptr, ptr, %struct.lxb_html_tree_pending_table_t, ptr, i8, i8, i8, i8, i8, i8, ptr, ptr, ptr, i32, i64 }
%struct.lxb_html_tree_pending_table_t = type { ptr, i8 }
%struct.lexbor_array_obj_t = type { ptr, i64, i64, i64 }

; Function Attrs: inlinehint nounwind uwtable
define internal i64 @lexbor_array_obj_length(ptr noundef %0) #3 {
  %2 = alloca ptr, align 8
  store ptr %0, ptr %2, align 8, !tbaa !9
  %3 = load ptr, ptr %2, align 8, !tbaa !9
  %4 = getelementptr inbounds nuw %struct.lexbor_array_obj_t, ptr %3, i32 0, i32 2
  %5 = load i64, ptr %4, align 8, !tbaa !86
  ret i64 %5
}

; Function Attrs: inlinehint nounwind uwtable
define internal zeroext i1 @lxb_html_tree_insertion_mode_in_body_eof(ptr noundef %0, ptr noundef %1) #3 {
  %3 = alloca i1, align 1
  %4 = alloca ptr, align 8
  %5 = alloca ptr, align 8
  %6 = alloca i8, align 1
  %7 = alloca i32, align 4
  store ptr %0, ptr %4, align 8, !tbaa !4
  store ptr %1, ptr %5, align 8, !tbaa !9
  %8 = load ptr, ptr %4, align 8, !tbaa !4
  %9 = getelementptr inbounds nuw %struct.lxb_html_tree, ptr %8, i32 0, i32 6
  %10 = load ptr, ptr %9, align 8, !tbaa !77
  %11 = call i64 @lexbor_array_obj_length(ptr noundef %10)
  %12 = icmp ne i64 %11, 0
  br i1 %12, label %13, label %17

13:                                               ; preds = %2
  %14 = load ptr, ptr %4, align 8, !tbaa !4
  %15 = load ptr, ptr %5, align 8, !tbaa !9
  %16 = call zeroext i1 @lxb_html_tree_insertion_mode_in_template(ptr noundef %14, ptr noundef %15)
  store i1 %16, ptr %3, align 1
  br label %42

17:                                               ; preds = %2
  call void @llvm.lifetime.start.p0(i64 1, ptr %6) #5
  %18 = load ptr, ptr %4, align 8, !tbaa !4
  %19 = call zeroext i1 @lxb_html_tree_check_scope_element(ptr noundef %18)
  %20 = zext i1 %19 to i8
  store i8 %20, ptr %6, align 1, !tbaa !38
  %21 = load i8, ptr %6, align 1, !tbaa !38, !range !29, !noundef !30
  %22 = trunc i8 %21 to i1
  %23 = zext i1 %22 to i32
  %24 = icmp eq i32 %23, 0
  br i1 %24, label %25, label %28

25:                                               ; preds = %17
  %26 = load ptr, ptr %4, align 8, !tbaa !4
  %27 = load ptr, ptr %5, align 8, !tbaa !9
  call void @lxb_html_tree_parse_error(ptr noundef %26, ptr noundef %27, i32 noundef 20)
  br label %28

28:                                               ; preds = %25, %17
  %29 = load ptr, ptr %4, align 8, !tbaa !4
  %30 = call i32 @lxb_html_tree_stop_parsing(ptr noundef %29)
  %31 = load ptr, ptr %4, align 8, !tbaa !4
  %32 = getelementptr inbounds nuw %struct.lxb_html_tree, ptr %31, i32 0, i32 18
  store i32 %30, ptr %32, align 8, !tbaa !25
  %33 = load ptr, ptr %4, align 8, !tbaa !4
  %34 = getelementptr inbounds nuw %struct.lxb_html_tree, ptr %33, i32 0, i32 18
  %35 = load i32, ptr %34, align 8, !tbaa !25
  %36 = icmp ne i32 %35, 0
  br i1 %36, label %37, label %40

37:                                               ; preds = %28
  %38 = load ptr, ptr %4, align 8, !tbaa !4
  %39 = call zeroext i1 @lxb_html_tree_process_abort(ptr noundef %38)
  store i1 %39, ptr %3, align 1
  store i32 1, ptr %7, align 4
  br label %41

40:                                               ; preds = %28
  store i1 true, ptr %3, align 1
  store i32 1, ptr %7, align 4
  br label %41

41:                                               ; preds = %40, %37
  call void @llvm.lifetime.end.p0(i64 1, ptr %6) #5
  br label %42

42:                                               ; preds = %41, %13
  %43 = load i1, ptr %3, align 1
  ret i1 %43
}