; Function Attrs: inlinehint nounwind uwtable
define internal fastcc zeroext i1 @lxb_html_tree_insertion_mode_in_body_eof(ptr noundef %0, ptr noundef %1) unnamed_addr #3 {
  %3 = getelementptr inbounds nuw i8, ptr %0, i64 48
  %4 = load ptr, ptr %3, align 8, !tbaa !64
  %5 = getelementptr i8, ptr %4, i64 16
  %.val = load i64, ptr %5, align 8, !tbaa !65
  %.not = icmp eq i64 %.val, 0
  br i1 %.not, label %8, label %6

6:                                                ; preds = %2
  %7 = tail call zeroext i1 @lxb_html_tree_insertion_mode_in_template(ptr noundef nonnull %0, ptr noundef %1) #6
  br label %16

8:                                                ; preds = %2
  %9 = tail call zeroext i1 @lxb_html_tree_check_scope_element(ptr noundef nonnull %0) #6
  br i1 %9, label %11, label %10

10:                                               ; preds = %8
  tail call void @lxb_html_tree_parse_error(ptr noundef nonnull %0, ptr noundef %1, i32 noundef 20) #6
  br label %11

11:                                               ; preds = %10, %8
  %12 = tail call i32 @lxb_html_tree_stop_parsing(ptr noundef nonnull %0) #6
  %13 = getelementptr inbounds nuw i8, ptr %0, i64 112
  store i32 %12, ptr %13, align 8, !tbaa !22
  %.not11 = icmp eq i32 %12, 0
  br i1 %.not11, label %16, label %14

14:                                               ; preds = %11
  %15 = tail call zeroext i1 @lxb_html_tree_process_abort(ptr noundef nonnull %0) #6
  br label %16

16:                                               ; preds = %14, %11, %6
  %.0 = phi i1 [ %7, %6 ], [ %15, %14 ], [ true, %11 ]
  ret i1 %.0
}